(cdatetime
datetime
p0
(S'\x07\xda\x01\x0f\x08\x07\x17\x07\t\x96'
p1
tp2
Rp3
(dp4
S'ollin_noe@hotmail.com'
p5
S'ollin_noe@hotmail.com'
p6
sS'blackdragon_zf9@hotmail.com'
p7
S'blackdragon_zf9@hotmail.com'
p8
sS'edgar_adriam@yahoo.com.mx'
p9
S'edgar_adriam@yahoo.com.mx'
p10
sS'cph.mentoring.redes@gmail.com'
p11
S'cph.mentoring.redes@gmail.com'
p12
sS'stohex@gmail.com'
p13
S'Juan Nadie'
p14
sS'secpapers-sc.1226360542.oganjphedgnefpngdiin-disco299=gmail.com@securityfocus.com'
p15
S'secpapers-sc.1226360542.oganjphedgnefpngdiin-disco299=gmail.com@securityfocus.com'
p16
sS'casualidad_taap@hotmail.com'
p17
S'casualidad_taap@hotmail.com'
p18
sS'carta_perdida@vipze.com'
p19
S'carta_perdida@vipze.com'
p20
sS'antiguisantes@gmail.com'
p21
S'Iv\xc3\xa1n Ferrer'
p22
sS'cleber0048@hotmail.com'
p23
S'cleber0048@hotmail.com'
p24
sS'jmhr1992@hotmail.com'
p25
S'jmhr1992@hotmail.com'
p26
sS'pagos@consol.org.mx'
p27
S'pagos@consol.org.mx'
p28
sS'suger269@hotmail.com'
p29
S'Cesar'
p30
sS'focus-ms-sc.1226360543.kaifpjkbcomgipnolmbp-disco299=gmail.com@securityfocus.com'
p31
S'focus-ms-sc.1226360543.kaifpjkbcomgipnolmbp-disco299=gmail.com@securityfocus.com'
p32
sS'disco299@gmail.com.self-destructing-email.com'
p33
S'disco299@gmail.com.self-destructing-email.com'
p34
sS'linux-secnews-sc.1226970202.dgibaddgpcidjdpgijig-disco299=gmail.com@securityfocus.com'
p35
S'linux-secnews-sc.1226970202.dgibaddgpcidjdpgijig-disco299=gmail.com@securityfocus.com'
p36
sS'kaileljudio_2@hotmail.com'
p37
S'Kael'
p38
sS'opensuse-translation-es+confsub-5542aceb7b0eb267-disco299=gmail.com@opensuse.org'
p39
S'opensuse-translation-es+confsub-5542aceb7b0eb267-disco299=gmail.com@opensuse.org'
p40
sS'flordeatrevidaa@hotmail.com'
p41
S'flordeatrevidaa@hotmail.com'
p42
sS'stingraf_@hotmail.com'
p43
S'Chompiras'
p44
sS'spam@eyerouge.com'
p45
S'spam@eyerouge.com'
p46
sS'trinawurevo@hotmail.com'
p47
S'trinawurevo@hotmail.com'
p48
sS'framework-subscribe@metasploit.com'
p49
S'framework-subscribe@metasploit.com'
p50
sS'dreiko3000@hotmail.com'
p51
S'Jesus'
p52
sS'tool_jax@hotmail.com'
p53
S'Humberto Rodr\xc3\xacguez'
p54
sS'el_crakers_001@hotmail.com'
p55
S'el_crakers_001@hotmail.com'
p56
sS'cooldudesmart@hotmail.com'
p57
S'cooldudesmart@hotmail.com'
p58
sS'dominiticos@gmail.com'
p59
S'Vladimir'
p60
sS'ericlu1991@gmail.com'
p61
S'Eric Lu'
p62
sS'fernando_orea@hotmail.com'
p63
S'fernando_orea@hotmail.com'
p64
sS'magneto@excian.net'
p65
S'magneto@excian.net'
p66
sS'shelltip@shelldorado.com'
p67
S'shelltip@shelldorado.com'
p68
sS'disco299@hotmail.com'
p69
S'disco299@hotmail.com'
p70
sS'683@zinester.com'
p71
S'cph mentoring redes'
p72
sS'akoizumi@maticorp.com'
p73
S'"Alicia Koizumi"'
p74
sS'AnimAlf@users.sf.net'
p75
S'AnimAlf'
p76
sS'disco299@gmail.com'
p77
S'disco299@gmail.com'
p78
sS'raziel_jl@hotmail.com'
p79
S'raziel_jl@hotmail.com'
p80
sS'f_idel@hotmail.com'
p81
S'f_idel@hotmail.com'
p82
sS'wifisec-sc.1226360542.aoiolpjjhekhgdhpiodb-disco299=gmail.com@securityfocus.com'
p83
S'wifisec-sc.1226360542.aoiolpjjhekhgdhpiodb-disco299=gmail.com@securityfocus.com'
p84
sS'crypto-sc.1226360542.cgikompbdiadcencckko-disco299=gmail.com@securityfocus.com'
p85
S'crypto-sc.1226360542.cgikompbdiadcencckko-disco299=gmail.com@securityfocus.com'
p86
sS'vuln-dev-help@securityfocus.com'
p87
S'vuln-dev-help@securityfocus.com'
p88
sS'freebsd-questions@freebsd.org'
p89
S'freebsd-questions@freebsd.org'
p90
sS'pen-test@securityfocus.com'
p91
S'pen-test@securityfocus.com'
p92
sS'gecavi99@hotmail.com'
p93
S'gecavi99@hotmail.com'
p94
sS'natodf@yahoo.com'
p95
S'Honorato Saavedra'
p96
sS'response29477898@zinester.com'
p97
S'cph_mentoring_redes at Zinester.com'
p98
sS'pen-test-sc.1226360543.kplclheljhkadigljbjn-disco299=gmail.com@securityfocus.com'
p99
S'pen-test-sc.1226360543.kplclheljhkadigljbjn-disco299=gmail.com@securityfocus.com'
p100
sS'tuueresparamii@hotmail.com'
p101
S'tuueresparamii@hotmail.com'
p102
sS'jarc_v3sd@hotmail.com'
p103
S'Juan'
p104
sS'xochiilpili@hotmail.com'
p105
S'xochiilpili@hotmail.com'
p106
sS'blad_lll@hotmail.com'
p107
S'blad_lll@hotmail.com'
p108
sS'r.rajamani@gmail.com'
p109
S'Rajarajan Rajamani'
p110
sS'secretary@bugcon.org'
p111
S'secretary@bugcon.org'
p112
sS'caefi@unam.mx'
p113
S'Coordinaci\xc3\xb3n de Administraci\xc3\xb3n Escolar'
p114
sS'openl2@hotmail.com'
p115
S'openl2@hotmail.com'
p116
sS'luga880924@hotmail.com'
p117
S'luga880924@hotmail.com'
p118
sS'forensics-es-sc.1226360542.kaecgbahoipcjamogngm-disco299=gmail.com@securityfocus.com'
p119
S'forensics-es-sc.1226360542.kaecgbahoipcjamogngm-disco299=gmail.com@securityfocus.com'
p120
sS'ficovh@gmail.com'
p121
S'ficovh@gmail.com'
p122
sS'wartownthegame@gmail.com'
p123
S'makh16 hc'
p124
sS'bksyde001@hotmail.com'
p125
S'Bksyde BK'
p126
sS'vuln-dev-sc.1226360543.kmoamlcoecgngdhlonil-disco299=gmail.com@securityfocus.com'
p127
S'vuln-dev-sc.1226360543.kmoamlcoecgngdhlonil-disco299=gmail.com@securityfocus.com'
p128
sS'response@zinester.com'
p129
S'cph_mentoring_redes at Zinester.com'
p130
sS'Lix.security@gmail.com'
p131
S'Lix Security'
p132
sS'felipidevil@hotmail.com'
p133
S'felipidevil@hotmail.com'
p134
sS'eyerouge@gmail.com'
p135
S'Ladder of Wesnoth'
p136
sS'ms-secnews-sc.1226970202.kkeaaklibhklkoddnlnd-disco299=gmail.com@securityfocus.com'
p137
S'ms-secnews-sc.1226970202.kkeaaklibhklkoddnlnd-disco299=gmail.com@securityfocus.com'
p138
sS'erik_alan99@hotmail.com'
p139
S'erik_alan99@hotmail.com'
p140
sS'marco.jacobo@jav-si.com.mx'
p141
S'Marco Antonio Jacobo Cort\xc3\xa9s'
p142
sS'soytuamigo_72@hotmail.com'
p143
S'soytuamigo_72@hotmail.com'
p144
sS'security-basics-sc.1226360543.adcdeepkdjjplikkmigg-disco299=gmail.com@securityfocus.com'
p145
S'security-basics-sc.1226360543.adcdeepkdjjplikkmigg-disco299=gmail.com@securityfocus.com'
p146
sS'pablinyu@hotmail.com'
p147
S'Pablo'
p148
sS'oxid1@hotmail.com'
p149
S'Cookie'
p150
sS'djbeto88@hotmail.com'
p151
S'djbeto88@hotmail.com'
p152
sS'genawarykub@hotmail.com'
p153
S'genawarykub@hotmail.com'
p154
sS'johnes001@hotmail.com'
p155
S'johnes001@hotmail.com'
p156
sS'odobollo@hotmail.com'
p157
S'Odonel'
p158
sS'secureshell-sc.1226360542.lpkddalaggomdibhjdfa-disco299=gmail.com@securityfocus.com'
p159
S'secureshell-sc.1226360542.lpkddalaggomdibhjdfa-disco299=gmail.com@securityfocus.com'
p160
sS'elivesystems@gmail.com'
p161
S'elivesystems@gmail.com'
p162
sS'federicosciorra@hotmail.com'
p163
S'federicosciorra@hotmail.com'
p164
sS'opensuse-translation-es+subscribe@opensuse.org'
p165
S'opensuse-translation-es+subscribe@opensuse.org'
p166
sS'majordomo@netbsd.org'
p167
S'majordomo@netbsd.org'
p168
sS'steve@churchledger.com'
p169
S'steve@churchledgder.com'
p170
sS'cirocomer@prodigy.net.mx'
p171
S'cirocomer@prodigy.net.mx'
p172
sS'ajym_bm@hotmail.com'
p173
S'ajym_bm@hotmail.com'
p174
sS'astlan_262@hotmail.com'
p175
S'Hugo Lopez Vazquez'
p176
sS'supremedan@hotmail.com'
p177
S'supremedan@hotmail.com'
p178
sS'casandra_l.k@hotmail.com'
p179
S'casandra_l.k@hotmail.com'
p180
sS'chilicuil@unixmexico.org'
p181
S'chilicuil@unixmexico.org'
p182
sS'majordomo@openbsd.org'
p183
S'majordomo@openbsd.org'
p184
sS'evz14@hotmail.com'
p185
S'Estevez'
p186
sS'astroboy1911@msn.com'
p187
S'Astroboy'
p188
sS'congreso@seguridad.unam.mx'
p189
S'Congreso de Seguridad en C\xc3\xb3mputo'
p190
sS'estevez923@hotmail.com'
p191
S'estevez923@hotmail.com'
p192
sS'cph-mentoring-redes@freelists.org'
p193
S'cph-mentoring-redes@freelists.org'
p194
sS'infolibros@libros.com.mx'
p195
S'infolibros@libros.com.mx'
p196
sS'salahal_dinyusuf23@hotmail.com'
p197
S'salahal_dinyusuf23@hotmail.com'
p198
sS'pagos@enli.org.mx'
p199
S'natalia guti\xc3\x83\xc2\xa9rrez sosa'
p200
sS'mygcount@gmail.com'
p201
S'tipc Ocean 12'
p202
sS'opensuse-translation-es@opensuse.org'
p203
S'opensuse-translation-es'
p204
sS'bugtraq-sc.1226358972.dniijcfcgcphdbhleogf-disco299=gmail.com@securityfocus.com'
p205
S'bugtraq-sc.1226358972.dniijcfcgcphdbhleogf-disco299=gmail.com@securityfocus.com'
p206
sS'focus-linux-sc.1226360542.gcfhgjdaiocjijhdcdcg-disco299=gmail.com@securityfocus.com'
p207
S'focus-linux-sc.1226360542.gcfhgjdaiocjijhdcdcg-disco299=gmail.com@securityfocus.com'
p208
sS'rockerboy_zf@excian.net'
p209
S'rockerboy_zf@excian.net'
p210
sS'chrisnamiko@hotmail.com'
p211
S'chrisnamiko@hotmail.com'
p212
sS'brenda-0204@hotmail.com'
p213
S'brenda-0204@hotmail.com'
p214
sS'focus-bsd-sc.1226360543.bnagdibdhlicdgfnkebb-disco299=gmail.com@securityfocus.com'
p215
S'focus-bsd-sc.1226360543.bnagdibdhlicdgfnkebb-disco299=gmail.com@securityfocus.com'
p216
sS'secprog-sc.1226360542.bhkkcjacbgpgjpdpcpem-disco299=gmail.com@securityfocus.com'
p217
S'secprog-sc.1226360542.bhkkcjacbgpgjpdpcpem-disco299=gmail.com@securityfocus.com'
p218
sS'sf-news-sc.1226970202.dcjmklhmajjehcokiggk-disco299=gmail.com@securityfocus.com'
p219
S'sf-news-sc.1226970202.dcjmklhmajjehcokiggk-disco299=gmail.com@securityfocus.com'
p220
sS'666kybito@live.com'
p221
S'666kybito@live.com'
p222
sS'Th3ziX@debian-mx.com'
p223
S'Th3ziX@debian-mx.com'
p224
sS'vim-subscribe@vim.org'
p225
S'vim-subscribe@vim.org'
p226
sS'cph-mentoring@freelists.org'
p227
S'cph-mentoring@freelists.org'
p228
sS'diegoturciostc@gmail.com'
p229
S'diegoturciostc@gmail.com'
p230
sS'tux-power@hotmail.com'
p231
S'Tux Penguin Power'
p232
sS'oxid01@hotmail.com'
p233
S'Cookie'
p234
sS'zono_32@hotmail.com'
p235
S'zono_32@hotmail.com'
p236
stp237
.